; Function Attrs: nounwind sspstrong uwtable
define hidden ptr @pm_iseq_new_main(ptr noundef %0, i64 noundef %1, i64 noundef %2, ptr noundef %3, i32 noundef %4, ptr noundef %5) local_unnamed_addr #0 {
  %7 = getelementptr inbounds nuw i8, ptr %0, i64 80
  %8 = load ptr, ptr %7, align 8, !tbaa !183
  %9 = getelementptr inbounds nuw i8, ptr %8, i64 608
  %10 = load i64, ptr %9, align 8, !tbaa !195
  %11 = trunc i64 %10 to i32
  %12 = add i32 %11, -1
  %13 = tail call i64 @rb_get_coverages() #20
  %14 = and i64 %13, -5
  %15 = icmp ne i64 %14, 0
  %16 = icmp sgt i32 %12, -1
  %or.cond.i = and i1 %16, %15
  br i1 %or.cond.i, label %17, label %iseq_new_setup_coverage.exit

17:                                               ; preds = %6
  %18 = tail call i32 @rb_get_coverage_mode() #20
  %19 = and i32 %18, 8
  %.not.i.i = icmp eq i32 %19, 0
  %20 = select i1 %.not.i.i, i32 %12, i32 0
  %21 = tail call i64 @rb_default_coverage(i32 noundef %20) #20
  %22 = tail call i64 @rb_hash_aset(i64 noundef %13, i64 noundef %1, i64 noundef %21) #20
  br label %iseq_new_setup_coverage.exit

iseq_new_setup_coverage.exit:                     ; preds = %6, %17
  %23 = tail call i64 @rb_fstring_new(ptr noundef nonnull @.str.1, i64 noundef 6) #20
  %.not = icmp eq i32 %4, 0
  %24 = select i1 %.not, ptr @COMPILE_OPTION_FALSE, ptr @COMPILE_OPTION_DEFAULT
  %25 = tail call ptr @pm_iseq_new_with_opt(ptr noundef nonnull %0, i64 noundef %23, i64 noundef %1, i64 noundef %2, i32 noundef 0, ptr noundef %3, i32 noundef 0, i32 noundef 7, ptr noundef nonnull %24, ptr noundef %5)
  ret ptr %25
}